target datalayout = "e-m:e-p270:32:32-p271:32:32-p272:64:64-i64:64-i128:128-f80:128-n8:16:32:64-S128"
target triple = "x86_64-pc-linux-gnu"

@mbedtls_aesni_has_support.done = internal global i32 0, align 4
@mbedtls_aesni_has_support.c = internal global i32 0, align 4

; Function Attrs: nounwind uwtable
define hidden i32 @mbedtls_aesni_has_support(i32 noundef %0) #0 {
  %2 = alloca i32, align 4
  store i32 %0, ptr %2, align 4, !tbaa !3
  %3 = load i32, ptr @mbedtls_aesni_has_support.done, align 4, !tbaa !3
  %4 = icmp ne i32 %3, 0
  br i1 %4, label %7, label %5

5:                                                ; preds = %1
  %6 = call i32 asm "movl  $$1, %eax   \0A\09cpuid             \0A\09", "={cx},~{eax},~{ebx},~{edx},~{dirflag},~{fpsr},~{flags}"() #3, !srcloc !7
  store i32 %6, ptr @mbedtls_aesni_has_support.c, align 4, !tbaa !3
  store i32 1, ptr @mbedtls_aesni_has_support.done, align 4, !tbaa !3
  br label %7

7:                                                ; preds = %5, %1
  %8 = load i32, ptr @mbedtls_aesni_has_support.c, align 4, !tbaa !3
  %9 = load i32, ptr %2, align 4, !tbaa !3
  %10 = and i32 %8, %9
  %11 = icmp ne i32 %10, 0
  %12 = zext i1 %11 to i32
  ret i32 %12
}