; Function Attrs: nounwind memory(readwrite, argmem: none, inaccessiblemem: none) uwtable
define hidden range(i32 0, 2) i32 @mbedtls_aesni_has_support(i32 noundef %0) local_unnamed_addr #0 {
  %.b = load i1, ptr @mbedtls_aesni_has_support.done, align 4
  br i1 %.b, label %._crit_edge, label %2

._crit_edge:                                      ; preds = %1
  %.pre = load i32, ptr @mbedtls_aesni_has_support.c, align 4, !tbaa !3
  br label %4

2:                                                ; preds = %1
  %3 = tail call i32 asm "movl  $$1, %eax   \0A\09cpuid             \0A\09", "={cx},~{eax},~{ebx},~{edx},~{dirflag},~{fpsr},~{flags}"() #4, !srcloc !7
  store i32 %3, ptr @mbedtls_aesni_has_support.c, align 4, !tbaa !3
  store i1 true, ptr @mbedtls_aesni_has_support.done, align 4
  br label %4

4:                                                ; preds = %._crit_edge, %2
  %5 = phi i32 [ %.pre, %._crit_edge ], [ %3, %2 ]
  %6 = and i32 %5, %0
  %7 = icmp ne i32 %6, 0
  %8 = zext i1 %7 to i32
  ret i32 %8
}